        .text
        .intel_syntax noprefix
        .file   "example.cpp"
        .file   1 "/opt/compiler-explorer/gcc-8.3.0/lib/gcc/x86_64-linux-gnu/8.3.0/../../../../include/c++/8.3.0/x86_64-linux-gnu/bits" "atomic_word.h"
        .file   2 "/opt/compiler-explorer/gcc-8.3.0/lib/gcc/x86_64-linux-gnu/8.3.0/../../../../include/c++/8.3.0/bits" "ios_base.h"
        .file   3 "/opt/compiler-explorer/gcc-8.3.0/lib/gcc/x86_64-linux-gnu/8.3.0/../../../../include/c++/8.3.0" "iostream"
        .file   4 "/opt/compiler-explorer/gcc-8.3.0/lib/gcc/x86_64-linux-gnu/8.3.0/../../../../include/c++/8.3.0/bits" "basic_string.h"
        .file   5 "/opt/compiler-explorer/gcc-8.3.0/lib/gcc/x86_64-linux-gnu/8.3.0/../../../../include/c++/8.3.0/bits" "alloc_traits.h"
        .file   6 "/opt/compiler-explorer/gcc-8.3.0/lib/gcc/x86_64-linux-gnu/8.3.0/../../../../include/c++/8.3.0/x86_64-linux-gnu/bits" "c++config.h"
        .file   7 "/opt/compiler-explorer/gcc-8.3.0/lib/gcc/x86_64-linux-gnu/8.3.0/../../../../include/c++/8.3.0/ext" "alloc_traits.h"
        .file   8 "/opt/compiler-explorer/gcc-8.3.0/lib/gcc/x86_64-linux-gnu/8.3.0/../../../../include/c++/8.3.0/bits" "char_traits.h"
        .file   9 "/opt/compiler-explorer/gcc-8.3.0/lib/gcc/x86_64-linux-gnu/8.3.0/../../../../include/c++/8.3.0/bits" "postypes.h"
        .file   10 "/usr/include/x86_64-linux-gnu/bits/types" "__mbstate_t.h"
        .file   11 "/usr/include/x86_64-linux-gnu/bits/types" "mbstate_t.h"
        .file   12 "/opt/compiler-explorer/gcc-8.3.0/lib/gcc/x86_64-linux-gnu/8.3.0/../../../../include/c++/8.3.0" "cwchar"
        .file   13 "/usr/include/x86_64-linux-gnu/bits/types" "wint_t.h"
        .file   14 "/usr/include" "wchar.h"
        .file   15 "/usr/include/x86_64-linux-gnu/bits/types" "struct_FILE.h"
        .file   16 "/usr/include/x86_64-linux-gnu/bits" "types.h"
        .file   17 "/opt/compiler-explorer/clang-8.0.0/lib/clang/8.0.0/include" "stddef.h"
        .file   18 "/usr/include/x86_64-linux-gnu/bits/types" "__FILE.h"
        .file   19 "/opt/compiler-explorer/gcc-8.3.0/lib/gcc/x86_64-linux-gnu/8.3.0/../../../../include/c++/8.3.0/bits" "exception_ptr.h"
        .file   20 "/opt/compiler-explorer/gcc-8.3.0/lib/gcc/x86_64-linux-gnu/8.3.0/../../../../include/c++/8.3.0/debug" "debug.h"
        .file   21 "/usr/include/x86_64-linux-gnu/bits" "stdint-intn.h"
        .file   22 "/opt/compiler-explorer/gcc-8.3.0/lib/gcc/x86_64-linux-gnu/8.3.0/../../../../include/c++/8.3.0" "cstdint"
        .file   23 "/usr/include" "stdint.h"
        .file   24 "/usr/include/x86_64-linux-gnu/bits" "stdint-uintn.h"
        .file   25 "/opt/compiler-explorer/gcc-8.3.0/lib/gcc/x86_64-linux-gnu/8.3.0/../../../../include/c++/8.3.0" "clocale"
        .file   26 "/usr/include" "locale.h"
        .file   27 "/usr/include" "ctype.h"
        .file   28 "/opt/compiler-explorer/gcc-8.3.0/lib/gcc/x86_64-linux-gnu/8.3.0/../../../../include/c++/8.3.0" "cctype"
        .file   29 "/opt/compiler-explorer/gcc-8.3.0/lib/gcc/x86_64-linux-gnu/8.3.0/../../../../include/c++/8.3.0/ext" "new_allocator.h"
        .file   30 "/usr/include" "stdlib.h"
        .file   31 "/opt/compiler-explorer/gcc-8.3.0/lib/gcc/x86_64-linux-gnu/8.3.0/../../../../include/c++/8.3.0/bits" "std_abs.h"
        .file   32 "/opt/compiler-explorer/gcc-8.3.0/lib/gcc/x86_64-linux-gnu/8.3.0/../../../../include/c++/8.3.0" "cstdlib"
        .file   33 "/usr/include/x86_64-linux-gnu/bits" "stdlib-float.h"
        .file   34 "/usr/include/x86_64-linux-gnu/bits" "stdlib-bsearch.h"
        .file   35 "/usr/include/x86_64-linux-gnu/bits/types" "FILE.h"
        .file   36 "/opt/compiler-explorer/gcc-8.3.0/lib/gcc/x86_64-linux-gnu/8.3.0/../../../../include/c++/8.3.0" "cstdio"
        .file   37 "/usr/include/x86_64-linux-gnu/bits/types" "__fpos_t.h"
        .file   38 "/usr/include" "stdio.h"
        .file   39 "/usr/include/x86_64-linux-gnu/bits" "stdio.h"
        .file   40 "/usr/include" "wctype.h"
        .file   41 "/opt/compiler-explorer/gcc-8.3.0/lib/gcc/x86_64-linux-gnu/8.3.0/../../../../include/c++/8.3.0" "cwctype"
        .file   42 "/usr/include/x86_64-linux-gnu/bits" "wctype-wchar.h"
        .globl  main                    # -- Begin function main
        .p2align        4, 0x90
        .type   main,@function
main:                                   # @main
.Lfunc_begin0:
        .file   43 "/home/ce" "./example.cpp"
        .loc    43 3 0                  # ./example.cpp:3:0
        .cfi_startproc
        .cfi_personality 3, __gxx_personality_v0
        .cfi_lsda 3, .Lexception0
# %bb.0:
        push    r15
        .cfi_def_cfa_offset 16
        push    r14
        .cfi_def_cfa_offset 24
        push    rbx
        .cfi_def_cfa_offset 32
        sub     rsp, 96
        .cfi_def_cfa_offset 128
        .cfi_offset rbx, -32
        .cfi_offset r14, -24
        .cfi_offset r15, -16
        .loc    4 182 51 prologue_end   # /opt/compiler-explorer/gcc-8.3.0/lib/gcc/x86_64-linux-gnu/8.3.0/../../../../include/c++/8.3.0/bits/basic_string.h:182:51
        lea     r15, [rsp + 48]
.Ltmp16:
        #DEBUG_VALUE: _Alloc_hider:__a <- undef
        #DEBUG_VALUE: _Alloc_hider:__dat <- $r15
        .loc    4 149 36                # /opt/compiler-explorer/gcc-8.3.0/lib/gcc/x86_64-linux-gnu/8.3.0/../../../../include/c++/8.3.0/bits/basic_string.h:149:36
        mov     qword ptr [rsp + 32], r15
.Ltmp17:
        #DEBUG_VALUE: _M_length:__length <- 0
        #DEBUG_VALUE: _M_set_length:__n <- 0
        .loc    4 172 26                # /opt/compiler-explorer/gcc-8.3.0/lib/gcc/x86_64-linux-gnu/8.3.0/../../../../include/c++/8.3.0/bits/basic_string.h:172:26
        mov     qword ptr [rsp + 40], 0
.Ltmp18:
        #DEBUG_VALUE: assign:__c1 <- $r15
        .loc    8 287 14                # /opt/compiler-explorer/gcc-8.3.0/lib/gcc/x86_64-linux-gnu/8.3.0/../../../../include/c++/8.3.0/bits/char_traits.h:287:14
        mov     byte ptr [rsp + 48], 0
.Ltmp0:
        lea     rsi, [rsp + 32]
.Ltmp19:
        #DEBUG_VALUE: _M_data:this <- [DW_OP_plus_uconst 32] $rsp
        #DEBUG_VALUE: _M_length:this <- [DW_OP_plus_uconst 32] $rsp
        #DEBUG_VALUE: _M_set_length:this <- [DW_OP_plus_uconst 32] $rsp
        #DEBUG_VALUE: _Alloc_hider:this <- [DW_OP_plus_uconst 32] $rsp
        #DEBUG_VALUE: _M_local_data:this <- [DW_OP_plus_uconst 32] $rsp
        #DEBUG_VALUE: basic_string:this <- [DW_OP_plus_uconst 32] $rsp
        #DEBUG_VALUE: main:name <- [DW_OP_plus_uconst 32, DW_OP_deref] $rsp
        .loc    43 5 14                 # ./example.cpp:5:14
        mov     edi, offset std::cin
        call    std::basic_istream<char, std::char_traits<char> >& std::operator>><char, std::char_traits<char>, std::allocator<char> >(std::basic_istream<char, std::char_traits<char> >&, std::__cxx11::basic_string<char, std::char_traits<char>, std::allocator<char> >&)
.Ltmp1:
.Ltmp20:
# %bb.1:
        #DEBUG_VALUE: main:name <- [DW_OP_plus_uconst 32, DW_OP_deref] $rsp
        #DEBUG_VALUE: operator==<char, std::char_traits<char>, std::allocator<char> >:__rhs <- undef
        .loc    43 0 14 is_stmt 0       # ./example.cpp:0:14
        lea     rdi, [rsp + 32]
.Ltmp21:
        #DEBUG_VALUE: operator==<char, std::char_traits<char>, std::allocator<char> >:__lhs <- [DW_OP_plus_uconst 32] $rsp
        #DEBUG_VALUE: operator!=<char, std::char_traits<char>, std::allocator<char> >:__lhs <- [DW_OP_plus_uconst 32] $rsp
        .loc    4 6084 20 is_stmt 1     # /opt/compiler-explorer/gcc-8.3.0/lib/gcc/x86_64-linux-gnu/8.3.0/../../../../include/c++/8.3.0/bits/basic_string.h:6084:20
        mov     esi, offset .L.str
.Ltmp22:
        #DEBUG_VALUE: operator!=<char, std::char_traits<char>, std::allocator<char> >:__rhs <- $rsi
        call    std::__cxx11::basic_string<char, std::char_traits<char>, std::allocator<char> >::compare(char const*) const
.Ltmp23:
        .loc    4 6084 35 is_stmt 0     # /opt/compiler-explorer/gcc-8.3.0/lib/gcc/x86_64-linux-gnu/8.3.0/../../../../include/c++/8.3.0/bits/basic_string.h:6084:35
        test    eax, eax
.Ltmp24:
        .loc    43 6 9 is_stmt 1        # ./example.cpp:6:9
        je      .LBB0_21
.Ltmp25:
# %bb.2:
        #DEBUG_VALUE: main:name <- [DW_OP_plus_uconst 32, DW_OP_deref] $rsp
.Ltmp2:
        .loc    43 0 9 is_stmt 0        # ./example.cpp:0:9
        lea     rdi, [rsp + 64]
        lea     rdx, [rsp + 32]
.Ltmp26:
        .loc    43 7 30 is_stmt 1       # ./example.cpp:7:30
        mov     esi, offset .L.str.1
        call    std::__cxx11::basic_string<char, std::char_traits<char>, std::allocator<char> > std::operator+<char, std::char_traits<char>, std::allocator<char> >(char const*, std::__cxx11::basic_string<char, std::char_traits<char>, std::allocator<char> > const&)
.Ltmp3:
.Ltmp27:
# %bb.3:
        #DEBUG_VALUE: main:name <- [DW_OP_plus_uconst 32, DW_OP_deref] $rsp
        #DEBUG_VALUE: operator+<char, std::char_traits<char>, std::allocator<char> >:__lhs <- undef
        #DEBUG_VALUE: append:this <- undef
        #DEBUG_VALUE: _M_check_length:this <- undef
        #DEBUG_VALUE: size:this <- undef
        .loc    43 0 30 is_stmt 0       # ./example.cpp:0:30
        movabs  rax, 9223372036854775807
.Ltmp28:
        #DEBUG_VALUE: _M_check_length:__n2 <- 1
        #DEBUG_VALUE: _M_check_length:__n1 <- 0
        #DEBUG_VALUE: append:__n <- 1
        .loc    4 311 47 is_stmt 1      # /opt/compiler-explorer/gcc-8.3.0/lib/gcc/x86_64-linux-gnu/8.3.0/../../../../include/c++/8.3.0/bits/basic_string.h:311:47
        cmp     qword ptr [rsp + 72], rax
.Ltmp29:
        .loc    4 311 6 is_stmt 0       # /opt/compiler-explorer/gcc-8.3.0/lib/gcc/x86_64-linux-gnu/8.3.0/../../../../include/c++/8.3.0/bits/basic_string.h:311:6
        je      .LBB0_4
.Ltmp30:
# %bb.6:
        #DEBUG_VALUE: main:name <- [DW_OP_plus_uconst 32, DW_OP_deref] $rsp
.Ltmp5:
        #DEBUG_VALUE: append:__s <- undef
        .loc    4 0 6                   # /opt/compiler-explorer/gcc-8.3.0/lib/gcc/x86_64-linux-gnu/8.3.0/../../../../include/c++/8.3.0/bits/basic_string.h:0:6
        lea     rdi, [rsp + 64]
        .loc    4 1268 9 is_stmt 1      # /opt/compiler-explorer/gcc-8.3.0/lib/gcc/x86_64-linux-gnu/8.3.0/../../../../include/c++/8.3.0/bits/basic_string.h:1268:9
        mov     esi, offset .L.str.2
.Ltmp31:
        #DEBUG_VALUE: operator+<char, std::char_traits<char>, std::allocator<char> >:__rhs <- $rsi
        mov     edx, 1
        call    std::__cxx11::basic_string<char, std::char_traits<char>, std::allocator<char> >::_M_append(char const*, unsigned long)
.Ltmp32:
.Ltmp6:
# %bb.7:
        #DEBUG_VALUE: main:name <- [DW_OP_plus_uconst 32, DW_OP_deref] $rsp
        #DEBUG_VALUE: basic_string:this <- undef
        #DEBUG_VALUE: _M_local_data:this <- undef
        .loc    4 182 51                # /opt/compiler-explorer/gcc-8.3.0/lib/gcc/x86_64-linux-gnu/8.3.0/../../../../include/c++/8.3.0/bits/basic_string.h:182:51
        lea     rbx, [rsp + 16]
.Ltmp33:
        #DEBUG_VALUE: _Alloc_hider:this <- undef
        .loc    4 149 36                # /opt/compiler-explorer/gcc-8.3.0/lib/gcc/x86_64-linux-gnu/8.3.0/../../../../include/c++/8.3.0/bits/basic_string.h:149:36
        mov     qword ptr [rsp], rbx
.Ltmp34:
        #DEBUG_VALUE: _M_data:this <- $rax
        #DEBUG_VALUE: _M_is_local:this <- $rax
        #DEBUG_VALUE: basic_string:__str <- $rax
        .loc    4 176 28                # /opt/compiler-explorer/gcc-8.3.0/lib/gcc/x86_64-linux-gnu/8.3.0/../../../../include/c++/8.3.0/bits/basic_string.h:176:28
        mov     rdx, qword ptr [rax]
.Ltmp35:
        #DEBUG_VALUE: _M_local_data:this <- $rax
        #DEBUG_VALUE: _M_data:__p <- $rdx
        .loc    4 192 57                # /opt/compiler-explorer/gcc-8.3.0/lib/gcc/x86_64-linux-gnu/8.3.0/../../../../include/c++/8.3.0/bits/basic_string.h:192:57
        mov     rcx, rax
        add     rcx, 16
.Ltmp36:
        #DEBUG_VALUE: copy:__s2 <- $rcx
        #DEBUG_VALUE: _M_data:__p <- $rcx
        #DEBUG_VALUE: assign:__c1 <- $rcx
        .loc    4 211 26                # /opt/compiler-explorer/gcc-8.3.0/lib/gcc/x86_64-linux-gnu/8.3.0/../../../../include/c++/8.3.0/bits/basic_string.h:211:26
        cmp     rdx, rcx
.Ltmp37:
        .loc    4 544 6                 # /opt/compiler-explorer/gcc-8.3.0/lib/gcc/x86_64-linux-gnu/8.3.0/../../../../include/c++/8.3.0/bits/basic_string.h:544:6
        je      .LBB0_8
.Ltmp38:
# %bb.9:
        #DEBUG_VALUE: _M_data:__p <- $rdx
        #DEBUG_VALUE: basic_string:__str <- $rax
        #DEBUG_VALUE: main:name <- [DW_OP_plus_uconst 32, DW_OP_deref] $rsp
        #DEBUG_VALUE: _M_data:this <- undef
        .loc    4 168 26                # /opt/compiler-explorer/gcc-8.3.0/lib/gcc/x86_64-linux-gnu/8.3.0/../../../../include/c++/8.3.0/bits/basic_string.h:168:26
        mov     qword ptr [rsp], rdx
.Ltmp39:
        #DEBUG_VALUE: _M_data:this <- $rax
        .loc    4 552 24                # /opt/compiler-explorer/gcc-8.3.0/lib/gcc/x86_64-linux-gnu/8.3.0/../../../../include/c++/8.3.0/bits/basic_string.h:552:24
        mov     rdx, qword ptr [rax + 16]
.Ltmp40:
        #DEBUG_VALUE: _M_capacity:this <- undef
        #DEBUG_VALUE: _M_capacity:__capacity <- $rdx
        .loc    4 200 31                # /opt/compiler-explorer/gcc-8.3.0/lib/gcc/x86_64-linux-gnu/8.3.0/../../../../include/c++/8.3.0/bits/basic_string.h:200:31
        mov     qword ptr [rsp + 16], rdx
        jmp     .LBB0_10
.Ltmp41:
.LBB0_21:
        #DEBUG_VALUE: main:name <- [DW_OP_plus_uconst 32, DW_OP_deref] $rsp
.Ltmp13:
        .file   44 "/opt/compiler-explorer/gcc-8.3.0/lib/gcc/x86_64-linux-gnu/8.3.0/../../../../include/c++/8.3.0" "ostream"
        .loc    44 561 2                # /opt/compiler-explorer/gcc-8.3.0/lib/gcc/x86_64-linux-gnu/8.3.0/../../../../include/c++/8.3.0/ostream:561:2
        mov     edi, offset std::cout
.Ltmp42:
        #DEBUG_VALUE: operator<<<std::char_traits<char> >:__out <- $rdi
        mov     esi, offset .L.str.3
.Ltmp43:
        #DEBUG_VALUE: operator<<<std::char_traits<char> >:__s <- $rsi
        mov     edx, 6
        call    std::basic_ostream<char, std::char_traits<char> >& std::__ostream_insert<char, std::char_traits<char> >(std::basic_ostream<char, std::char_traits<char> >&, char const*, long)
.Ltmp44:
.Ltmp14:
        .loc    44 0 2 is_stmt 0        # /opt/compiler-explorer/gcc-8.3.0/lib/gcc/x86_64-linux-gnu/8.3.0/../../../../include/c++/8.3.0/ostream:0:2
        jmp     .LBB0_22
.Ltmp45:
.LBB0_8:
        #DEBUG_VALUE: copy:__s2 <- $rcx
        #DEBUG_VALUE: basic_string:__str <- $rax
        #DEBUG_VALUE: main:name <- [DW_OP_plus_uconst 32, DW_OP_deref] $rsp
        #DEBUG_VALUE: _Alloc_hider:__dat <- $rbx
        #DEBUG_VALUE: copy:__s1 <- $rbx
        #DEBUG_VALUE: copy:__n <- 16
        .loc    8 352 33 is_stmt 1      # /opt/compiler-explorer/gcc-8.3.0/lib/gcc/x86_64-linux-gnu/8.3.0/../../../../include/c++/8.3.0/bits/char_traits.h:352:33
        movups  xmm0, xmmword ptr [rdx]
        movups  xmmword ptr [rbx], xmm0
.Ltmp46:
.LBB0_10:
        #DEBUG_VALUE: basic_string:__str <- $rax
        #DEBUG_VALUE: main:name <- [DW_OP_plus_uconst 32, DW_OP_deref] $rsp
        #DEBUG_VALUE: length:this <- $rax
        .loc    4 937 16                # /opt/compiler-explorer/gcc-8.3.0/lib/gcc/x86_64-linux-gnu/8.3.0/../../../../include/c++/8.3.0/bits/basic_string.h:937:16
        mov     rdx, qword ptr [rax + 8]
.Ltmp47:
        #DEBUG_VALUE: _M_local_data:this <- $rax
        #DEBUG_VALUE: _M_length:this <- undef
        #DEBUG_VALUE: _M_length:__length <- $rdx
        .loc    4 172 26                # /opt/compiler-explorer/gcc-8.3.0/lib/gcc/x86_64-linux-gnu/8.3.0/../../../../include/c++/8.3.0/bits/basic_string.h:172:26
        mov     qword ptr [rsp + 8], rdx
.Ltmp48:
        #DEBUG_VALUE: _M_data:this <- $rax
        .loc    4 168 26                # /opt/compiler-explorer/gcc-8.3.0/lib/gcc/x86_64-linux-gnu/8.3.0/../../../../include/c++/8.3.0/bits/basic_string.h:168:26
        mov     qword ptr [rax], rcx
.Ltmp49:
        #DEBUG_VALUE: _M_length:this <- $rax
        #DEBUG_VALUE: _M_set_length:this <- $rax
        #DEBUG_VALUE: _M_length:__length <- 0
        #DEBUG_VALUE: _M_set_length:__n <- 0
        .loc    4 172 26                # /opt/compiler-explorer/gcc-8.3.0/lib/gcc/x86_64-linux-gnu/8.3.0/../../../../include/c++/8.3.0/bits/basic_string.h:172:26
        mov     qword ptr [rax + 8], 0
.Ltmp50:
        #DEBUG_VALUE: _M_data:this <- $rax
        .loc    8 287 14                # /opt/compiler-explorer/gcc-8.3.0/lib/gcc/x86_64-linux-gnu/8.3.0/../../../../include/c++/8.3.0/bits/char_traits.h:287:14
        mov     byte ptr [rax + 16], 0
.Ltmp51:
        #DEBUG_VALUE: _M_data:this <- undef
        #DEBUG_VALUE: data:this <- undef
        #DEBUG_VALUE: operator<<<char, std::char_traits<char>, std::allocator<char> >:__str <- undef
        .loc    4 176 28                # /opt/compiler-explorer/gcc-8.3.0/lib/gcc/x86_64-linux-gnu/8.3.0/../../../../include/c++/8.3.0/bits/basic_string.h:176:28
        mov     rsi, qword ptr [rsp]
.Ltmp52:
        #DEBUG_VALUE: size:this <- undef
        .loc    4 931 16                # /opt/compiler-explorer/gcc-8.3.0/lib/gcc/x86_64-linux-gnu/8.3.0/../../../../include/c++/8.3.0/bits/basic_string.h:931:16
        mov     rdx, qword ptr [rsp + 8]
.Ltmp53:
.Ltmp7:
        .loc    4 6328 14               # /opt/compiler-explorer/gcc-8.3.0/lib/gcc/x86_64-linux-gnu/8.3.0/../../../../include/c++/8.3.0/bits/basic_string.h:6328:14
        mov     edi, offset std::cout
.Ltmp54:
        #DEBUG_VALUE: operator<<<char, std::char_traits<char>, std::allocator<char> >:__os <- $rdi
        call    std::basic_ostream<char, std::char_traits<char> >& std::__ostream_insert<char, std::char_traits<char> >(std::basic_ostream<char, std::char_traits<char> >&, char const*, long)
.Ltmp55:
.Ltmp8:
# %bb.11:
        #DEBUG_VALUE: main:name <- [DW_OP_plus_uconst 32, DW_OP_deref] $rsp
        #DEBUG_VALUE: _M_destroy:this <- undef
        #DEBUG_VALUE: _M_destroy:__size <- [DW_OP_plus_uconst 16, DW_OP_deref, DW_OP_stack_value] undef
        #DEBUG_VALUE: _M_data:this <- undef
        #DEBUG_VALUE: deallocate:__a <- undef
        #DEBUG_VALUE: deallocate:__n <- [DW_OP_plus_uconst 16, DW_OP_deref, DW_OP_plus_uconst 1, DW_OP_stack_value] undef
        #DEBUG_VALUE: deallocate:this <- undef
        #DEBUG_VALUE: deallocate: <- [DW_OP_plus_uconst 16, DW_OP_deref, DW_OP_plus_uconst 1, DW_OP_stack_value] undef
        #DEBUG_VALUE: ~basic_string:this <- undef
        #DEBUG_VALUE: _M_dispose:this <- undef
        #DEBUG_VALUE: _M_is_local:this <- undef
        #DEBUG_VALUE: _M_data:this <- undef
        .loc    4 176 28                # /opt/compiler-explorer/gcc-8.3.0/lib/gcc/x86_64-linux-gnu/8.3.0/../../../../include/c++/8.3.0/bits/basic_string.h:176:28
        mov     rdi, qword ptr [rsp]
.Ltmp56:
        #DEBUG_VALUE: deallocate:__p <- $rdi
        #DEBUG_VALUE: _M_local_data:this <- undef
        #DEBUG_VALUE: deallocate:__p <- $rdi
        .loc    4 211 26                # /opt/compiler-explorer/gcc-8.3.0/lib/gcc/x86_64-linux-gnu/8.3.0/../../../../include/c++/8.3.0/bits/basic_string.h:211:26
        cmp     rdi, rbx
.Ltmp57:
        .loc    4 220 6                 # /opt/compiler-explorer/gcc-8.3.0/lib/gcc/x86_64-linux-gnu/8.3.0/../../../../include/c++/8.3.0/bits/basic_string.h:220:6
        je      .LBB0_13
.Ltmp58:
# %bb.12:
        #DEBUG_VALUE: deallocate:__p <- $rdi
        #DEBUG_VALUE: deallocate:__p <- $rdi
        #DEBUG_VALUE: main:name <- [DW_OP_plus_uconst 32, DW_OP_deref] $rsp
        .loc    29 125 2                # /opt/compiler-explorer/gcc-8.3.0/lib/gcc/x86_64-linux-gnu/8.3.0/../../../../include/c++/8.3.0/ext/new_allocator.h:125:2
        call    operator delete(void*)
.Ltmp59:
.LBB0_13:
        #DEBUG_VALUE: main:name <- [DW_OP_plus_uconst 32, DW_OP_deref] $rsp
        #DEBUG_VALUE: ~basic_string:this <- undef
        #DEBUG_VALUE: _M_dispose:this <- undef
        #DEBUG_VALUE: _M_is_local:this <- undef
        #DEBUG_VALUE: _M_data:this <- undef
        .loc    4 176 28                # /opt/compiler-explorer/gcc-8.3.0/lib/gcc/x86_64-linux-gnu/8.3.0/../../../../include/c++/8.3.0/bits/basic_string.h:176:28
        mov     rdi, qword ptr [rsp + 64]
.Ltmp60:
        #DEBUG_VALUE: _M_local_data:this <- undef
        #DEBUG_VALUE: deallocate:__p <- $rdi
        #DEBUG_VALUE: deallocate:__p <- $rdi
        .loc    4 192 57                # /opt/compiler-explorer/gcc-8.3.0/lib/gcc/x86_64-linux-gnu/8.3.0/../../../../include/c++/8.3.0/bits/basic_string.h:192:57
        lea     rax, [rsp + 80]
.Ltmp61:
        .loc    4 211 26                # /opt/compiler-explorer/gcc-8.3.0/lib/gcc/x86_64-linux-gnu/8.3.0/../../../../include/c++/8.3.0/bits/basic_string.h:211:26
        cmp     rdi, rax
.Ltmp62:
        .loc    4 220 6                 # /opt/compiler-explorer/gcc-8.3.0/lib/gcc/x86_64-linux-gnu/8.3.0/../../../../include/c++/8.3.0/bits/basic_string.h:220:6
        je      .LBB0_22
.Ltmp63:
# %bb.14:
        #DEBUG_VALUE: deallocate:__p <- $rdi
        #DEBUG_VALUE: deallocate:__p <- $rdi
        #DEBUG_VALUE: main:name <- [DW_OP_plus_uconst 32, DW_OP_deref] $rsp
        .loc    29 125 2                # /opt/compiler-explorer/gcc-8.3.0/lib/gcc/x86_64-linux-gnu/8.3.0/../../../../include/c++/8.3.0/ext/new_allocator.h:125:2
        call    operator delete(void*)
.Ltmp64:
.LBB0_22:
        #DEBUG_VALUE: main:name <- [DW_OP_plus_uconst 32, DW_OP_deref] $rsp
        #DEBUG_VALUE: main:name <- [DW_OP_deref] undef
        #DEBUG_VALUE: ~basic_string:this <- undef
        #DEBUG_VALUE: _M_dispose:this <- undef
        #DEBUG_VALUE: _M_is_local:this <- undef
        #DEBUG_VALUE: _M_data:this <- undef
        .loc    4 176 28                # /opt/compiler-explorer/gcc-8.3.0/lib/gcc/x86_64-linux-gnu/8.3.0/../../../../include/c++/8.3.0/bits/basic_string.h:176:28
        mov     rdi, qword ptr [rsp + 32]
.Ltmp65:
        #DEBUG_VALUE: _M_local_data:this <- undef
        #DEBUG_VALUE: deallocate:__p <- $rdi
        #DEBUG_VALUE: deallocate:__p <- $rdi
        .loc    4 211 26                # /opt/compiler-explorer/gcc-8.3.0/lib/gcc/x86_64-linux-gnu/8.3.0/../../../../include/c++/8.3.0/bits/basic_string.h:211:26
        cmp     rdi, r15
.Ltmp66:
        .loc    4 220 6                 # /opt/compiler-explorer/gcc-8.3.0/lib/gcc/x86_64-linux-gnu/8.3.0/../../../../include/c++/8.3.0/bits/basic_string.h:220:6
        je      .LBB0_24
.Ltmp67:
# %bb.23:
        #DEBUG_VALUE: deallocate:__p <- $rdi
        #DEBUG_VALUE: deallocate:__p <- $rdi
        .loc    29 125 2                # /opt/compiler-explorer/gcc-8.3.0/lib/gcc/x86_64-linux-gnu/8.3.0/../../../../include/c++/8.3.0/ext/new_allocator.h:125:2
        call    operator delete(void*)
.Ltmp68:
.LBB0_24:
        #DEBUG_VALUE: _M_destroy:this <- undef
        #DEBUG_VALUE: _M_destroy:__size <- [DW_OP_plus_uconst 16, DW_OP_deref, DW_OP_stack_value] undef
        #DEBUG_VALUE: _M_data:this <- undef
        #DEBUG_VALUE: deallocate:__a <- undef
        #DEBUG_VALUE: deallocate:__n <- [DW_OP_plus_uconst 16, DW_OP_deref, DW_OP_plus_uconst 1, DW_OP_stack_value] undef
        #DEBUG_VALUE: deallocate:this <- undef
        #DEBUG_VALUE: deallocate: <- [DW_OP_plus_uconst 16, DW_OP_deref, DW_OP_plus_uconst 1, DW_OP_stack_value] undef
        .loc    43 12 1                 # ./example.cpp:12:1
        xor     eax, eax
        add     rsp, 96
        .cfi_def_cfa_offset 32
        pop     rbx
        .cfi_def_cfa_offset 24
        pop     r14
        .cfi_def_cfa_offset 16
        pop     r15
        .cfi_def_cfa_offset 8
        ret
.LBB0_4:
        .cfi_def_cfa_offset 128
.Ltmp69:
        #DEBUG_VALUE: main:name <- [DW_OP_plus_uconst 32, DW_OP_deref] $rsp
.Ltmp10:
        .loc    4 312 4                 # /opt/compiler-explorer/gcc-8.3.0/lib/gcc/x86_64-linux-gnu/8.3.0/../../../../include/c++/8.3.0/bits/basic_string.h:312:4
        mov     edi, offset .L.str.4
.Ltmp70:
        #DEBUG_VALUE: _M_check_length:__s <- $rdi
        call    std::__throw_length_error(char const*)
.Ltmp71:
.Ltmp11:
# %bb.5:
        #DEBUG_VALUE: main:name <- [DW_OP_plus_uconst 32, DW_OP_deref] $rsp
.LBB0_17:
        #DEBUG_VALUE: main:name <- [DW_OP_plus_uconst 32, DW_OP_deref] $rsp
.Ltmp9:
        .loc    4 0 4 is_stmt 0         # /opt/compiler-explorer/gcc-8.3.0/lib/gcc/x86_64-linux-gnu/8.3.0/../../../../include/c++/8.3.0/bits/basic_string.h:0:4
        mov     r14, rax
.Ltmp72:
        #DEBUG_VALUE: _M_data:this <- undef
        #DEBUG_VALUE: _M_is_local:this <- undef
        #DEBUG_VALUE: _M_dispose:this <- undef
        #DEBUG_VALUE: ~basic_string:this <- undef
        .loc    4 176 28 is_stmt 1      # /opt/compiler-explorer/gcc-8.3.0/lib/gcc/x86_64-linux-gnu/8.3.0/../../../../include/c++/8.3.0/bits/basic_string.h:176:28
        mov     rdi, qword ptr [rsp]
.Ltmp73:
        #DEBUG_VALUE: deallocate:__p <- $rdi
        #DEBUG_VALUE: _M_local_data:this <- undef
        #DEBUG_VALUE: deallocate:__p <- $rdi
        .loc    4 211 26                # /opt/compiler-explorer/gcc-8.3.0/lib/gcc/x86_64-linux-gnu/8.3.0/../../../../include/c++/8.3.0/bits/basic_string.h:211:26
        cmp     rdi, rbx
.Ltmp74:
        .loc    4 220 6                 # /opt/compiler-explorer/gcc-8.3.0/lib/gcc/x86_64-linux-gnu/8.3.0/../../../../include/c++/8.3.0/bits/basic_string.h:220:6
        jne     .LBB0_18
.Ltmp75:
# %bb.19:
        #DEBUG_VALUE: main:name <- [DW_OP_plus_uconst 32, DW_OP_deref] $rsp
        #DEBUG_VALUE: ~basic_string:this <- undef
        #DEBUG_VALUE: _M_dispose:this <- undef
        #DEBUG_VALUE: _M_is_local:this <- undef
        #DEBUG_VALUE: _M_data:this <- undef
        .loc    4 176 28                # /opt/compiler-explorer/gcc-8.3.0/lib/gcc/x86_64-linux-gnu/8.3.0/../../../../include/c++/8.3.0/bits/basic_string.h:176:28
        mov     rdi, qword ptr [rsp + 64]
.Ltmp76:
        #DEBUG_VALUE: _M_local_data:this <- undef
        #DEBUG_VALUE: deallocate:__p <- $rdi
        #DEBUG_VALUE: deallocate:__p <- $rdi
        .loc    4 192 57                # /opt/compiler-explorer/gcc-8.3.0/lib/gcc/x86_64-linux-gnu/8.3.0/../../../../include/c++/8.3.0/bits/basic_string.h:192:57
        lea     rax, [rsp + 80]
.Ltmp77:
        .loc    4 211 26                # /opt/compiler-explorer/gcc-8.3.0/lib/gcc/x86_64-linux-gnu/8.3.0/../../../../include/c++/8.3.0/bits/basic_string.h:211:26
        cmp     rdi, rax
.Ltmp78:
        .loc    4 220 6                 # /opt/compiler-explorer/gcc-8.3.0/lib/gcc/x86_64-linux-gnu/8.3.0/../../../../include/c++/8.3.0/bits/basic_string.h:220:6
        jne     .LBB0_20
.Ltmp79:
.LBB0_27:
        #DEBUG_VALUE: main:name <- [DW_OP_plus_uconst 32, DW_OP_deref] $rsp
        #DEBUG_VALUE: main:name <- [DW_OP_deref] undef
        #DEBUG_VALUE: ~basic_string:this <- undef
        #DEBUG_VALUE: _M_dispose:this <- undef
        #DEBUG_VALUE: _M_is_local:this <- undef
        #DEBUG_VALUE: _M_data:this <- undef
        .loc    4 176 28                # /opt/compiler-explorer/gcc-8.3.0/lib/gcc/x86_64-linux-gnu/8.3.0/../../../../include/c++/8.3.0/bits/basic_string.h:176:28
        mov     rdi, qword ptr [rsp + 32]
.Ltmp80:
        #DEBUG_VALUE: _M_local_data:this <- undef
        #DEBUG_VALUE: deallocate:__p <- $rdi
        #DEBUG_VALUE: deallocate:__p <- $rdi
        .loc    4 211 26                # /opt/compiler-explorer/gcc-8.3.0/lib/gcc/x86_64-linux-gnu/8.3.0/../../../../include/c++/8.3.0/bits/basic_string.h:211:26
        cmp     rdi, r15
.Ltmp81:
        .loc    4 220 6                 # /opt/compiler-explorer/gcc-8.3.0/lib/gcc/x86_64-linux-gnu/8.3.0/../../../../include/c++/8.3.0/bits/basic_string.h:220:6
        jne     .LBB0_28
.Ltmp82:
.LBB0_29:
        #DEBUG_VALUE: deallocate:__p <- $rdi
        #DEBUG_VALUE: deallocate:__p <- $rdi
        #DEBUG_VALUE: _M_destroy:this <- undef
        #DEBUG_VALUE: _M_destroy:__size <- [DW_OP_plus_uconst 16, DW_OP_deref, DW_OP_stack_value] undef
        #DEBUG_VALUE: _M_data:this <- undef
        #DEBUG_VALUE: deallocate:__a <- undef
        #DEBUG_VALUE: deallocate:__n <- [DW_OP_plus_uconst 16, DW_OP_deref, DW_OP_plus_uconst 1, DW_OP_stack_value] undef
        #DEBUG_VALUE: deallocate:this <- undef
        #DEBUG_VALUE: deallocate: <- [DW_OP_plus_uconst 16, DW_OP_deref, DW_OP_plus_uconst 1, DW_OP_stack_value] undef
        .loc    4 0 6 is_stmt 0         # /opt/compiler-explorer/gcc-8.3.0/lib/gcc/x86_64-linux-gnu/8.3.0/../../../../include/c++/8.3.0/bits/basic_string.h:0:6
        mov     rdi, r14
.Ltmp83:
        call    _Unwind_Resume
.LBB0_18:
.Ltmp84:
        #DEBUG_VALUE: deallocate:__p <- $rdi
        #DEBUG_VALUE: deallocate:__p <- $rdi
        #DEBUG_VALUE: main:name <- [DW_OP_plus_uconst 32, DW_OP_deref] $rsp
        .loc    29 125 2 is_stmt 1      # /opt/compiler-explorer/gcc-8.3.0/lib/gcc/x86_64-linux-gnu/8.3.0/../../../../include/c++/8.3.0/ext/new_allocator.h:125:2
        call    operator delete(void*)
.Ltmp85:
        #DEBUG_VALUE: ~basic_string:this <- undef
        #DEBUG_VALUE: _M_dispose:this <- undef
        #DEBUG_VALUE: _M_is_local:this <- undef
        #DEBUG_VALUE: _M_data:this <- undef
        .loc    4 176 28                # /opt/compiler-explorer/gcc-8.3.0/lib/gcc/x86_64-linux-gnu/8.3.0/../../../../include/c++/8.3.0/bits/basic_string.h:176:28
        mov     rdi, qword ptr [rsp + 64]
.Ltmp86:
        #DEBUG_VALUE: _M_local_data:this <- undef
        #DEBUG_VALUE: deallocate:__p <- $rdi
        #DEBUG_VALUE: deallocate:__p <- $rdi
        .loc    4 192 57                # /opt/compiler-explorer/gcc-8.3.0/lib/gcc/x86_64-linux-gnu/8.3.0/../../../../include/c++/8.3.0/bits/basic_string.h:192:57
        lea     rax, [rsp + 80]
.Ltmp87:
        .loc    4 211 26                # /opt/compiler-explorer/gcc-8.3.0/lib/gcc/x86_64-linux-gnu/8.3.0/../../../../include/c++/8.3.0/bits/basic_string.h:211:26
        cmp     rdi, rax
.Ltmp88:
        .loc    4 220 6                 # /opt/compiler-explorer/gcc-8.3.0/lib/gcc/x86_64-linux-gnu/8.3.0/../../../../include/c++/8.3.0/bits/basic_string.h:220:6
        je      .LBB0_27
        jmp     .LBB0_20
.Ltmp89:
.LBB0_16:
        #DEBUG_VALUE: main:name <- [DW_OP_plus_uconst 32, DW_OP_deref] $rsp
.Ltmp12:
        .loc    4 0 6 is_stmt 0         # /opt/compiler-explorer/gcc-8.3.0/lib/gcc/x86_64-linux-gnu/8.3.0/../../../../include/c++/8.3.0/bits/basic_string.h:0:6
        mov     r14, rax
        #DEBUG_VALUE: ~basic_string:this <- undef
        #DEBUG_VALUE: _M_dispose:this <- undef
        #DEBUG_VALUE: _M_is_local:this <- undef
        #DEBUG_VALUE: _M_data:this <- undef
.Ltmp90:
        .loc    4 176 28 is_stmt 1      # /opt/compiler-explorer/gcc-8.3.0/lib/gcc/x86_64-linux-gnu/8.3.0/../../../../include/c++/8.3.0/bits/basic_string.h:176:28
        mov     rdi, qword ptr [rsp + 64]
.Ltmp91:
        #DEBUG_VALUE: _M_local_data:this <- undef
        #DEBUG_VALUE: deallocate:__p <- $rdi
        #DEBUG_VALUE: deallocate:__p <- $rdi
        .loc    4 192 57                # /opt/compiler-explorer/gcc-8.3.0/lib/gcc/x86_64-linux-gnu/8.3.0/../../../../include/c++/8.3.0/bits/basic_string.h:192:57
        lea     rax, [rsp + 80]
.Ltmp92:
        .loc    4 211 26                # /opt/compiler-explorer/gcc-8.3.0/lib/gcc/x86_64-linux-gnu/8.3.0/../../../../include/c++/8.3.0/bits/basic_string.h:211:26
        cmp     rdi, rax
.Ltmp93:
        .loc    4 220 6                 # /opt/compiler-explorer/gcc-8.3.0/lib/gcc/x86_64-linux-gnu/8.3.0/../../../../include/c++/8.3.0/bits/basic_string.h:220:6
        je      .LBB0_27
.Ltmp94:
.LBB0_20:
        #DEBUG_VALUE: deallocate:__p <- $rdi
        #DEBUG_VALUE: deallocate:__p <- $rdi
        #DEBUG_VALUE: main:name <- [DW_OP_plus_uconst 32, DW_OP_deref] $rsp
        .loc    29 125 2                # /opt/compiler-explorer/gcc-8.3.0/lib/gcc/x86_64-linux-gnu/8.3.0/../../../../include/c++/8.3.0/ext/new_allocator.h:125:2
        call    operator delete(void*)
.Ltmp95:
        #DEBUG_VALUE: main:name <- [DW_OP_deref] undef
        #DEBUG_VALUE: ~basic_string:this <- undef
        #DEBUG_VALUE: _M_dispose:this <- undef
        #DEBUG_VALUE: _M_is_local:this <- undef
        #DEBUG_VALUE: _M_data:this <- undef
        .loc    4 176 28                # /opt/compiler-explorer/gcc-8.3.0/lib/gcc/x86_64-linux-gnu/8.3.0/../../../../include/c++/8.3.0/bits/basic_string.h:176:28
        mov     rdi, qword ptr [rsp + 32]
.Ltmp96:
        #DEBUG_VALUE: _M_local_data:this <- undef
        #DEBUG_VALUE: deallocate:__p <- $rdi
        #DEBUG_VALUE: deallocate:__p <- $rdi
        .loc    4 211 26                # /opt/compiler-explorer/gcc-8.3.0/lib/gcc/x86_64-linux-gnu/8.3.0/../../../../include/c++/8.3.0/bits/basic_string.h:211:26
        cmp     rdi, r15
.Ltmp97:
        .loc    4 220 6                 # /opt/compiler-explorer/gcc-8.3.0/lib/gcc/x86_64-linux-gnu/8.3.0/../../../../include/c++/8.3.0/bits/basic_string.h:220:6
        je      .LBB0_29
        jmp     .LBB0_28
.Ltmp98:
.LBB0_15:
        #DEBUG_VALUE: main:name <- [DW_OP_plus_uconst 32, DW_OP_deref] $rsp
.Ltmp4:
        .loc    4 0 6 is_stmt 0         # /opt/compiler-explorer/gcc-8.3.0/lib/gcc/x86_64-linux-gnu/8.3.0/../../../../include/c++/8.3.0/bits/basic_string.h:0:6
        mov     r14, rax
.Ltmp99:
        #DEBUG_VALUE: main:name <- [DW_OP_deref] undef
        #DEBUG_VALUE: ~basic_string:this <- undef
        #DEBUG_VALUE: _M_dispose:this <- undef
        #DEBUG_VALUE: _M_is_local:this <- undef
        #DEBUG_VALUE: _M_data:this <- undef
        .loc    4 176 28 is_stmt 1      # /opt/compiler-explorer/gcc-8.3.0/lib/gcc/x86_64-linux-gnu/8.3.0/../../../../include/c++/8.3.0/bits/basic_string.h:176:28
        mov     rdi, qword ptr [rsp + 32]
.Ltmp100:
        #DEBUG_VALUE: _M_local_data:this <- undef
        #DEBUG_VALUE: deallocate:__p <- $rdi
        #DEBUG_VALUE: deallocate:__p <- $rdi
        .loc    4 211 26                # /opt/compiler-explorer/gcc-8.3.0/lib/gcc/x86_64-linux-gnu/8.3.0/../../../../include/c++/8.3.0/bits/basic_string.h:211:26
        cmp     rdi, r15
.Ltmp101:
        .loc    4 220 6                 # /opt/compiler-explorer/gcc-8.3.0/lib/gcc/x86_64-linux-gnu/8.3.0/../../../../include/c++/8.3.0/bits/basic_string.h:220:6
        je      .LBB0_29
        jmp     .LBB0_28
.Ltmp102:
.LBB0_25:
        #DEBUG_VALUE: main:name <- [DW_OP_plus_uconst 32, DW_OP_deref] $rsp
.Ltmp15:
        .loc    4 0 6 is_stmt 0         # /opt/compiler-explorer/gcc-8.3.0/lib/gcc/x86_64-linux-gnu/8.3.0/../../../../include/c++/8.3.0/bits/basic_string.h:0:6
        mov     r14, rax
.Ltmp103:
        #DEBUG_VALUE: main:name <- [DW_OP_deref] undef
        #DEBUG_VALUE: ~basic_string:this <- undef
        #DEBUG_VALUE: _M_dispose:this <- undef
        #DEBUG_VALUE: _M_is_local:this <- undef
        #DEBUG_VALUE: _M_data:this <- undef
        .loc    4 176 28 is_stmt 1      # /opt/compiler-explorer/gcc-8.3.0/lib/gcc/x86_64-linux-gnu/8.3.0/../../../../include/c++/8.3.0/bits/basic_string.h:176:28
        mov     rdi, qword ptr [rsp + 32]
.Ltmp104:
        #DEBUG_VALUE: _M_local_data:this <- undef
        #DEBUG_VALUE: deallocate:__p <- $rdi
        #DEBUG_VALUE: deallocate:__p <- $rdi
        .loc    4 211 26                # /opt/compiler-explorer/gcc-8.3.0/lib/gcc/x86_64-linux-gnu/8.3.0/../../../../include/c++/8.3.0/bits/basic_string.h:211:26
        cmp     rdi, r15
.Ltmp105:
        .loc    4 220 6                 # /opt/compiler-explorer/gcc-8.3.0/lib/gcc/x86_64-linux-gnu/8.3.0/../../../../include/c++/8.3.0/bits/basic_string.h:220:6
        je      .LBB0_29
.Ltmp106:
.LBB0_28:
        #DEBUG_VALUE: deallocate:__p <- $rdi
        #DEBUG_VALUE: deallocate:__p <- $rdi
        .loc    29 125 2                # /opt/compiler-explorer/gcc-8.3.0/lib/gcc/x86_64-linux-gnu/8.3.0/../../../../include/c++/8.3.0/ext/new_allocator.h:125:2
        call    operator delete(void*)
.Ltmp107:
        #DEBUG_VALUE: _M_destroy:this <- undef
        #DEBUG_VALUE: _M_destroy:__size <- [DW_OP_plus_uconst 16, DW_OP_deref, DW_OP_stack_value] undef
        #DEBUG_VALUE: _M_data:this <- undef
        #DEBUG_VALUE: deallocate:__a <- undef
        #DEBUG_VALUE: deallocate:__n <- [DW_OP_plus_uconst 16, DW_OP_deref, DW_OP_plus_uconst 1, DW_OP_stack_value] undef
        #DEBUG_VALUE: deallocate:this <- undef
        #DEBUG_VALUE: deallocate: <- [DW_OP_plus_uconst 16, DW_OP_deref, DW_OP_plus_uconst 1, DW_OP_stack_value] undef
        .loc    29 0 2 is_stmt 0        # /opt/compiler-explorer/gcc-8.3.0/lib/gcc/x86_64-linux-gnu/8.3.0/../../../../include/c++/8.3.0/ext/new_allocator.h:0:2
        mov     rdi, r14
        call    _Unwind_Resume
.Ltmp108:
.Lfunc_end0:
        .size   main, .Lfunc_end0-main
        .cfi_endproc
        .section        .gcc_except_table,"a",@progbits
        .p2align        2
GCC_except_table0:
.Lexception0:
        .byte   255                     # @LPStart Encoding = omit
        .byte   255                     # @TType Encoding = omit
        .byte   1                       # Call site Encoding = uleb128
        .uleb128 .Lcst_end0-.Lcst_begin0
.Lcst_begin0:
        .uleb128 .Ltmp0-.Lfunc_begin0   # >> Call Site 1 <<
        .uleb128 .Ltmp1-.Ltmp0          #   Call between .Ltmp0 and .Ltmp1
        .uleb128 .Ltmp15-.Lfunc_begin0  #     jumps to .Ltmp15
        .byte   0                       #   On action: cleanup
        .uleb128 .Ltmp2-.Lfunc_begin0   # >> Call Site 2 <<
        .uleb128 .Ltmp3-.Ltmp2          #   Call between .Ltmp2 and .Ltmp3
        .uleb128 .Ltmp4-.Lfunc_begin0   #     jumps to .Ltmp4
        .byte   0                       #   On action: cleanup
        .uleb128 .Ltmp5-.Lfunc_begin0   # >> Call Site 3 <<
        .uleb128 .Ltmp6-.Ltmp5          #   Call between .Ltmp5 and .Ltmp6
        .uleb128 .Ltmp12-.Lfunc_begin0  #     jumps to .Ltmp12
        .byte   0                       #   On action: cleanup
        .uleb128 .Ltmp13-.Lfunc_begin0  # >> Call Site 4 <<
        .uleb128 .Ltmp14-.Ltmp13        #   Call between .Ltmp13 and .Ltmp14
        .uleb128 .Ltmp15-.Lfunc_begin0  #     jumps to .Ltmp15
        .byte   0                       #   On action: cleanup
        .uleb128 .Ltmp7-.Lfunc_begin0   # >> Call Site 5 <<
        .uleb128 .Ltmp8-.Ltmp7          #   Call between .Ltmp7 and .Ltmp8
        .uleb128 .Ltmp9-.Lfunc_begin0   #     jumps to .Ltmp9
        .byte   0                       #   On action: cleanup
        .uleb128 .Ltmp10-.Lfunc_begin0  # >> Call Site 6 <<
        .uleb128 .Ltmp11-.Ltmp10        #   Call between .Ltmp10 and .Ltmp11
        .uleb128 .Ltmp12-.Lfunc_begin0  #     jumps to .Ltmp12
        .byte   0                       #   On action: cleanup
        .uleb128 .Ltmp11-.Lfunc_begin0  # >> Call Site 7 <<
        .uleb128 .Lfunc_end0-.Ltmp11    #   Call between .Ltmp11 and .Lfunc_end0
        .byte   0                       #     has no landing pad
        .byte   0                       #   On action: cleanup
.Lcst_end0:
        .p2align        2
                                        # -- End function
        .section        .text.std::__cxx11::basic_string<char, std::char_traits<char>, std::allocator<char> > std::operator+<char, std::char_traits<char>, std::allocator<char> >(char const*, std::__cxx11::basic_string<char, std::char_traits<char>, std::allocator<char> > const&),"axG",@progbits,std::__cxx11::basic_string<char, std::char_traits<char>, std::allocator<char> > std::operator+<char, std::char_traits<char>, std::allocator<char> >(char const*, std::__cxx11::basic_string<char, std::char_traits<char>, std::allocator<char> > const&),comdat
        .weak   std::__cxx11::basic_string<char, std::char_traits<char>, std::allocator<char> > std::operator+<char, std::char_traits<char>, std::allocator<char> >(char const*, std::__cxx11::basic_string<char, std::char_traits<char>, std::allocator<char> > const&) # -- Begin function std::__cxx11::basic_string<char, std::char_traits<char>, std::allocator<char> > std::operator+<char, std::char_traits<char>, std::allocator<char> >(char const*, std::__cxx11::basic_string<char, std::char_traits<char>, std::allocator<char> > const&)
        .p2align        4, 0x90
        .type   std::__cxx11::basic_string<char, std::char_traits<char>, std::allocator<char> > std::operator+<char, std::char_traits<char>, std::allocator<char> >(char const*, std::__cxx11::basic_string<char, std::char_traits<char>, std::allocator<char> > const&),@function
std::__cxx11::basic_string<char, std::char_traits<char>, std::allocator<char> > std::operator+<char, std::char_traits<char>, std::allocator<char> >(char const*, std::__cxx11::basic_string<char, std::char_traits<char>, std::allocator<char> > const&): # @std::__cxx11::basic_string<char, std::char_traits<char>, std::allocator<char> > std::operator+<char, std::char_traits<char>, std::allocator<char> >(char const*, std::__cxx11::basic_string<char, std::char_traits<char>, std::allocator<char> > const&)
.Lfunc_begin1:
        .file   45 "/opt/compiler-explorer/gcc-8.3.0/lib/gcc/x86_64-linux-gnu/8.3.0/../../../../include/c++/8.3.0/bits" "basic_string.tcc"
        .loc    45 1159 0 is_stmt 1     # /opt/compiler-explorer/gcc-8.3.0/lib/gcc/x86_64-linux-gnu/8.3.0/../../../../include/c++/8.3.0/bits/basic_string.tcc:1159:0
        .cfi_startproc
        .cfi_personality 3, __gxx_personality_v0
        .cfi_lsda 3, .Lexception1
# %bb.0:
        push    r15
        .cfi_def_cfa_offset 16
        push    r14
        .cfi_def_cfa_offset 24
        push    r13
        .cfi_def_cfa_offset 32
        push    r12
        .cfi_def_cfa_offset 40
        push    rbx
        .cfi_def_cfa_offset 48
        .cfi_offset rbx, -48
        .cfi_offset r12, -40
        .cfi_offset r13, -32
        .cfi_offset r14, -24
        .cfi_offset r15, -16
        #DEBUG_VALUE: operator+<char, std::char_traits<char>, std::allocator<char> >:__lhs <- $rsi
        #DEBUG_VALUE: operator+<char, std::char_traits<char>, std::allocator<char> >:__rhs <- $rdx
.Ltmp118:
        #DEBUG_VALUE: length:__s <- $rsi
        #DEBUG_VALUE: operator+<char, std::char_traits<char>, std::allocator<char> >:__str <- [$rdi+0]
        #DEBUG_VALUE: basic_string:this <- $rdi
        #DEBUG_VALUE: _M_local_data:this <- $rdi
        #DEBUG_VALUE: _Alloc_hider:this <- $rdi
        #DEBUG_VALUE: _M_set_length:this <- $rdi
        #DEBUG_VALUE: _M_length:this <- $rdi
        #DEBUG_VALUE: _M_data:this <- $rdi
        #DEBUG_VALUE: size:this <- $rdx
        #DEBUG_VALUE: append:this <- $rdi
        #DEBUG_VALUE: _M_check_length:this <- $rdi
        #DEBUG_VALUE: size:this <- $rdi
        #DEBUG_VALUE: append:__s <- $rsi
        #DEBUG_VALUE: append:__str <- $rdx
        #DEBUG_VALUE: _M_data:this <- $rdx
        #DEBUG_VALUE: size:this <- $rdx
        #DEBUG_VALUE: append:this <- $rdi
        #DEBUG_VALUE: ~basic_string:this <- $rdi
        #DEBUG_VALUE: _M_dispose:this <- $rdi
        #DEBUG_VALUE: _M_is_local:this <- $rdi
        #DEBUG_VALUE: _M_data:this <- $rdi
        mov     r14, rdx
.Ltmp119:
        #DEBUG_VALUE: size:this <- $r14
        #DEBUG_VALUE: _M_data:this <- $r14
        #DEBUG_VALUE: append:__str <- $r14
        #DEBUG_VALUE: size:this <- $r14
        mov     r15, rsi
.Ltmp120:
        #DEBUG_VALUE: append:__s <- $r15
        mov     rbx, rdi
.Ltmp121:
        #DEBUG_VALUE: _M_data:this <- $rbx
        #DEBUG_VALUE: _M_is_local:this <- $rbx
        #DEBUG_VALUE: _M_dispose:this <- $rbx
        #DEBUG_VALUE: ~basic_string:this <- $rbx
        #DEBUG_VALUE: append:this <- $rbx
        #DEBUG_VALUE: size:this <- $rbx
        #DEBUG_VALUE: _M_check_length:this <- $rbx
        #DEBUG_VALUE: append:this <- $rbx
        #DEBUG_VALUE: _M_data:this <- $rbx
        #DEBUG_VALUE: operator+<char, std::char_traits<char>, std::allocator<char> >:__str <- [$rbx+0]
        #DEBUG_VALUE: length:__s <- $r15
        #DEBUG_VALUE: operator+<char, std::char_traits<char>, std::allocator<char> >:__rhs <- $r14
        #DEBUG_VALUE: operator+<char, std::char_traits<char>, std::allocator<char> >:__lhs <- $r15
        .loc    8 322 9 prologue_end    # /opt/compiler-explorer/gcc-8.3.0/lib/gcc/x86_64-linux-gnu/8.3.0/../../../../include/c++/8.3.0/bits/char_traits.h:322:9
        mov     rdi, rsi
.Ltmp122:
        call    strlen
        mov     r12, rax
.Ltmp123:
        #DEBUG_VALUE: operator+<char, std::char_traits<char>, std::allocator<char> >:__len <- $r12
        #DEBUG_VALUE: append:__n <- $r12
        #DEBUG_VALUE: _M_check_length:__n2 <- $r12
        #DEBUG_VALUE: _M_local_data:this <- $rbx
        #DEBUG_VALUE: basic_string:this <- $rbx
        .loc    4 182 51                # /opt/compiler-explorer/gcc-8.3.0/lib/gcc/x86_64-linux-gnu/8.3.0/../../../../include/c++/8.3.0/bits/basic_string.h:182:51
        lea     r13, [rbx + 16]
.Ltmp124:
        #DEBUG_VALUE: _Alloc_hider:__a <- undef
        #DEBUG_VALUE: _Alloc_hider:__dat <- $r13
        #DEBUG_VALUE: _Alloc_hider:this <- $rbx
        .loc    4 149 36                # /opt/compiler-explorer/gcc-8.3.0/lib/gcc/x86_64-linux-gnu/8.3.0/../../../../include/c++/8.3.0/bits/basic_string.h:149:36
        mov     qword ptr [rbx], r13
.Ltmp125:
        #DEBUG_VALUE: _M_length:__length <- 0
        #DEBUG_VALUE: _M_set_length:__n <- 0
        #DEBUG_VALUE: _M_length:this <- $rbx
        #DEBUG_VALUE: _M_set_length:this <- $rbx
        .loc    4 172 26                # /opt/compiler-explorer/gcc-8.3.0/lib/gcc/x86_64-linux-gnu/8.3.0/../../../../include/c++/8.3.0/bits/basic_string.h:172:26
        mov     qword ptr [rbx + 8], 0
.Ltmp126:
        #DEBUG_VALUE: assign:__c1 <- $r13
        .loc    8 287 14                # /opt/compiler-explorer/gcc-8.3.0/lib/gcc/x86_64-linux-gnu/8.3.0/../../../../include/c++/8.3.0/bits/char_traits.h:287:14
        mov     byte ptr [rbx + 16], 0
        mov     rsi, qword ptr [r14 + 8]
.Ltmp127:
        .loc    45 1165 27              # /opt/compiler-explorer/gcc-8.3.0/lib/gcc/x86_64-linux-gnu/8.3.0/../../../../include/c++/8.3.0/bits/basic_string.tcc:1165:27
        add     rsi, rax
.Ltmp109:
        .loc    45 1165 13 is_stmt 0    # /opt/compiler-explorer/gcc-8.3.0/lib/gcc/x86_64-linux-gnu/8.3.0/../../../../include/c++/8.3.0/bits/basic_string.tcc:1165:13
        mov     rdi, rbx
        call    std::__cxx11::basic_string<char, std::char_traits<char>, std::allocator<char> >::reserve(unsigned long)
.Ltmp110:
.Ltmp128:
# %bb.1:
        #DEBUG_VALUE: _M_check_length:__n2 <- $r12
        #DEBUG_VALUE: append:__n <- $r12
        #DEBUG_VALUE: operator+<char, std::char_traits<char>, std::allocator<char> >:__len <- $r12
        #DEBUG_VALUE: operator+<char, std::char_traits<char>, std::allocator<char> >:__lhs <- $r15
        #DEBUG_VALUE: operator+<char, std::char_traits<char>, std::allocator<char> >:__rhs <- $r14
        #DEBUG_VALUE: operator+<char, std::char_traits<char>, std::allocator<char> >:__str <- [$rbx+0]
        #DEBUG_VALUE: append:this <- $rbx
        #DEBUG_VALUE: _M_check_length:this <- $rbx
        #DEBUG_VALUE: append:__s <- $r15
        .loc    45 0 13                 # /opt/compiler-explorer/gcc-8.3.0/lib/gcc/x86_64-linux-gnu/8.3.0/../../../../include/c++/8.3.0/bits/basic_string.tcc:0:13
        movabs  rax, 9223372036854775807
.Ltmp129:
        #DEBUG_VALUE: _M_check_length:__n1 <- 0
        .loc    4 311 23 is_stmt 1      # /opt/compiler-explorer/gcc-8.3.0/lib/gcc/x86_64-linux-gnu/8.3.0/../../../../include/c++/8.3.0/bits/basic_string.h:311:23
        sub     rax, qword ptr [rbx + 8]
        .loc    4 311 47 is_stmt 0      # /opt/compiler-explorer/gcc-8.3.0/lib/gcc/x86_64-linux-gnu/8.3.0/../../../../include/c++/8.3.0/bits/basic_string.h:311:47
        cmp     rax, r12
.Ltmp130:
        .loc    4 311 6                 # /opt/compiler-explorer/gcc-8.3.0/lib/gcc/x86_64-linux-gnu/8.3.0/../../../../include/c++/8.3.0/bits/basic_string.h:311:6
        jb      .LBB1_2
.Ltmp131:
# %bb.4:
        #DEBUG_VALUE: append:__n <- $r12
        #DEBUG_VALUE: operator+<char, std::char_traits<char>, std::allocator<char> >:__len <- $r12
        #DEBUG_VALUE: operator+<char, std::char_traits<char>, std::allocator<char> >:__lhs <- $r15
        #DEBUG_VALUE: operator+<char, std::char_traits<char>, std::allocator<char> >:__rhs <- $r14
        #DEBUG_VALUE: operator+<char, std::char_traits<char>, std::allocator<char> >:__str <- [$rbx+0]
        #DEBUG_VALUE: append:this <- $rbx
        #DEBUG_VALUE: append:__s <- $r15
.Ltmp111:
        .loc    4 1254 9 is_stmt 1      # /opt/compiler-explorer/gcc-8.3.0/lib/gcc/x86_64-linux-gnu/8.3.0/../../../../include/c++/8.3.0/bits/basic_string.h:1254:9
        mov     rdi, rbx
        mov     rsi, r15
        mov     rdx, r12
        call    std::__cxx11::basic_string<char, std::char_traits<char>, std::allocator<char> >::_M_append(char const*, unsigned long)
.Ltmp112:
.Ltmp132:
# %bb.5:
        #DEBUG_VALUE: operator+<char, std::char_traits<char>, std::allocator<char> >:__len <- $r12
        #DEBUG_VALUE: operator+<char, std::char_traits<char>, std::allocator<char> >:__lhs <- $r15
        #DEBUG_VALUE: operator+<char, std::char_traits<char>, std::allocator<char> >:__rhs <- $r14
        #DEBUG_VALUE: operator+<char, std::char_traits<char>, std::allocator<char> >:__str <- [$rbx+0]
        .loc    4 176 28                # /opt/compiler-explorer/gcc-8.3.0/lib/gcc/x86_64-linux-gnu/8.3.0/../../../../include/c++/8.3.0/bits/basic_string.h:176:28
        mov     rsi, qword ptr [r14]
.Ltmp133:
        .loc    4 931 16                # /opt/compiler-explorer/gcc-8.3.0/lib/gcc/x86_64-linux-gnu/8.3.0/../../../../include/c++/8.3.0/bits/basic_string.h:931:16
        mov     rdx, qword ptr [r14 + 8]
.Ltmp134:
.Ltmp113:
        .loc    4 1222 16               # /opt/compiler-explorer/gcc-8.3.0/lib/gcc/x86_64-linux-gnu/8.3.0/../../../../include/c++/8.3.0/bits/basic_string.h:1222:16
        mov     rdi, rbx
        call    std::__cxx11::basic_string<char, std::char_traits<char>, std::allocator<char> >::_M_append(char const*, unsigned long)
.Ltmp114:
.Ltmp135:
# %bb.6:
        #DEBUG_VALUE: operator+<char, std::char_traits<char>, std::allocator<char> >:__len <- $r12
        #DEBUG_VALUE: operator+<char, std::char_traits<char>, std::allocator<char> >:__lhs <- $r15
        #DEBUG_VALUE: operator+<char, std::char_traits<char>, std::allocator<char> >:__rhs <- $r14
        #DEBUG_VALUE: operator+<char, std::char_traits<char>, std::allocator<char> >:__str <- [$rbx+0]
        .loc    45 1169 5               # /opt/compiler-explorer/gcc-8.3.0/lib/gcc/x86_64-linux-gnu/8.3.0/../../../../include/c++/8.3.0/bits/basic_string.tcc:1169:5
        mov     rax, rbx
        pop     rbx
.Ltmp136:
        .cfi_def_cfa_offset 40
        pop     r12
.Ltmp137:
        .cfi_def_cfa_offset 32
        pop     r13
        .cfi_def_cfa_offset 24
        pop     r14
.Ltmp138:
        .cfi_def_cfa_offset 16
        pop     r15
.Ltmp139:
        .cfi_def_cfa_offset 8
        ret
.LBB1_2:
        .cfi_def_cfa_offset 48
.Ltmp140:
        #DEBUG_VALUE: _M_check_length:__n2 <- $r12
        #DEBUG_VALUE: append:__n <- $r12
        #DEBUG_VALUE: operator+<char, std::char_traits<char>, std::allocator<char> >:__len <- $r12
        #DEBUG_VALUE: operator+<char, std::char_traits<char>, std::allocator<char> >:__lhs <- $r15
        #DEBUG_VALUE: operator+<char, std::char_traits<char>, std::allocator<char> >:__rhs <- $r14
        #DEBUG_VALUE: operator+<char, std::char_traits<char>, std::allocator<char> >:__str <- [$rbx+0]
        #DEBUG_VALUE: append:this <- $rbx
        #DEBUG_VALUE: _M_check_length:this <- $rbx
        #DEBUG_VALUE: append:__s <- $r15
.Ltmp115:
        .loc    4 312 4                 # /opt/compiler-explorer/gcc-8.3.0/lib/gcc/x86_64-linux-gnu/8.3.0/../../../../include/c++/8.3.0/bits/basic_string.h:312:4
        mov     edi, offset .L.str.4
.Ltmp141:
        #DEBUG_VALUE: _M_check_length:__s <- $rdi
        call    std::__throw_length_error(char const*)
.Ltmp142:
.Ltmp116:
# %bb.3:
        #DEBUG_VALUE: _M_check_length:__n2 <- $r12
        #DEBUG_VALUE: append:__n <- $r12
        #DEBUG_VALUE: operator+<char, std::char_traits<char>, std::allocator<char> >:__len <- $r12
        #DEBUG_VALUE: operator+<char, std::char_traits<char>, std::allocator<char> >:__lhs <- $r15
        #DEBUG_VALUE: operator+<char, std::char_traits<char>, std::allocator<char> >:__rhs <- $r14
        #DEBUG_VALUE: operator+<char, std::char_traits<char>, std::allocator<char> >:__str <- [$rbx+0]
        #DEBUG_VALUE: append:this <- $rbx
        #DEBUG_VALUE: _M_check_length:this <- $rbx
        #DEBUG_VALUE: append:__s <- $r15
.LBB1_7:
        #DEBUG_VALUE: operator+<char, std::char_traits<char>, std::allocator<char> >:__len <- $r12
        #DEBUG_VALUE: operator+<char, std::char_traits<char>, std::allocator<char> >:__lhs <- $r15
        #DEBUG_VALUE: operator+<char, std::char_traits<char>, std::allocator<char> >:__rhs <- $r14
        #DEBUG_VALUE: operator+<char, std::char_traits<char>, std::allocator<char> >:__str <- [$rbx+0]
.Ltmp117:
        .loc    4 0 4 is_stmt 0         # /opt/compiler-explorer/gcc-8.3.0/lib/gcc/x86_64-linux-gnu/8.3.0/../../../../include/c++/8.3.0/bits/basic_string.h:0:4
        mov     r14, rax
.Ltmp143:
        .loc    4 176 28 is_stmt 1      # /opt/compiler-explorer/gcc-8.3.0/lib/gcc/x86_64-linux-gnu/8.3.0/../../../../include/c++/8.3.0/bits/basic_string.h:176:28
        mov     rdi, qword ptr [rbx]
.Ltmp144:
        #DEBUG_VALUE: deallocate:__p <- $rdi
        #DEBUG_VALUE: deallocate:__p <- $rdi
        .loc    4 211 26                # /opt/compiler-explorer/gcc-8.3.0/lib/gcc/x86_64-linux-gnu/8.3.0/../../../../include/c++/8.3.0/bits/basic_string.h:211:26
        cmp     rdi, r13
.Ltmp145:
        .loc    4 220 6                 # /opt/compiler-explorer/gcc-8.3.0/lib/gcc/x86_64-linux-gnu/8.3.0/../../../../include/c++/8.3.0/bits/basic_string.h:220:6
        je      .LBB1_9
.Ltmp146:
# %bb.8:
        #DEBUG_VALUE: deallocate:__p <- $rdi
        #DEBUG_VALUE: deallocate:__p <- $rdi
        #DEBUG_VALUE: operator+<char, std::char_traits<char>, std::allocator<char> >:__len <- $r12
        #DEBUG_VALUE: operator+<char, std::char_traits<char>, std::allocator<char> >:__lhs <- $r15
        #DEBUG_VALUE: operator+<char, std::char_traits<char>, std::allocator<char> >:__str <- [$rbx+0]
        .loc    29 125 2                # /opt/compiler-explorer/gcc-8.3.0/lib/gcc/x86_64-linux-gnu/8.3.0/../../../../include/c++/8.3.0/ext/new_allocator.h:125:2
        call    operator delete(void*)
.Ltmp147:
.LBB1_9:
        #DEBUG_VALUE: operator+<char, std::char_traits<char>, std::allocator<char> >:__len <- $r12
        #DEBUG_VALUE: operator+<char, std::char_traits<char>, std::allocator<char> >:__lhs <- $r15
        #DEBUG_VALUE: operator+<char, std::char_traits<char>, std::allocator<char> >:__str <- [$rbx+0]
        .loc    29 0 2 is_stmt 0        # /opt/compiler-explorer/gcc-8.3.0/lib/gcc/x86_64-linux-gnu/8.3.0/../../../../include/c++/8.3.0/ext/new_allocator.h:0:2
        mov     rdi, r14
        call    _Unwind_Resume
.Lfunc_end1:
        .size   std::__cxx11::basic_string<char, std::char_traits<char>, std::allocator<char> > std::operator+<char, std::char_traits<char>, std::allocator<char> >(char const*, std::__cxx11::basic_string<char, std::char_traits<char>, std::allocator<char> > const&), .Lfunc_end1-std::__cxx11::basic_string<char, std::char_traits<char>, std::allocator<char> > std::operator+<char, std::char_traits<char>, std::allocator<char> >(char const*, std::__cxx11::basic_string<char, std::char_traits<char>, std::allocator<char> > const&)
        .cfi_endproc
        .section        .gcc_except_table,"a",@progbits
        .p2align        2
GCC_except_table1:
.Lexception1:
        .byte   255                     # @LPStart Encoding = omit
        .byte   255                     # @TType Encoding = omit
        .byte   1                       # Call site Encoding = uleb128
        .uleb128 .Lcst_end1-.Lcst_begin1
.Lcst_begin1:
        .uleb128 .Ltmp109-.Lfunc_begin1 # >> Call Site 1 <<
        .uleb128 .Ltmp116-.Ltmp109      #   Call between .Ltmp109 and .Ltmp116
        .uleb128 .Ltmp117-.Lfunc_begin1 #     jumps to .Ltmp117
        .byte   0                       #   On action: cleanup
        .uleb128 .Ltmp116-.Lfunc_begin1 # >> Call Site 2 <<
        .uleb128 .Lfunc_end1-.Ltmp116   #   Call between .Ltmp116 and .Lfunc_end1
        .byte   0                       #     has no landing pad
        .byte   0                       #   On action: cleanup
.Lcst_end1:
        .p2align        2
                                        # -- End function
        .section        .text.startup,"ax",@progbits
        .p2align        4, 0x90         # -- Begin function _GLOBAL__sub_I_example.cpp
        .type   _GLOBAL__sub_I_example.cpp,@function
_GLOBAL__sub_I_example.cpp:             # @_GLOBAL__sub_I_example.cpp
.Lfunc_begin2:
        .file   46 "/home/ce" "example.cpp"
        .loc    46 0 0 is_stmt 1        # example.cpp:0:0
        .cfi_startproc
# %bb.0:
        push    rax
        .cfi_def_cfa_offset 16
.Ltmp148:
        .loc    3 74 25 prologue_end    # /opt/compiler-explorer/gcc-8.3.0/lib/gcc/x86_64-linux-gnu/8.3.0/../../../../include/c++/8.3.0/iostream:74:25
        mov     edi, offset std::__ioinit
        call    std::ios_base::Init::Init() [complete object constructor]
        mov     edi, offset std::ios_base::Init::~Init() [complete object destructor]
        mov     esi, offset std::__ioinit
        mov     edx, offset __dso_handle
        pop     rax
        .cfi_def_cfa_offset 8
        jmp     __cxa_atexit            # TAILCALL
.Ltmp149:
.Lfunc_end2:
        .size   _GLOBAL__sub_I_example.cpp, .Lfunc_end2-_GLOBAL__sub_I_example.cpp
        .cfi_endproc
                                        # -- End function
        .type   std::__ioinit,@object  # @std::__ioinit
        .local  std::__ioinit
        .comm   std::__ioinit,1,1
        .hidden __dso_handle
        .type   .L.str,@object          # @.str
        .section        .rodata.str1.1,"aMS",@progbits,1
.L.str:
        .zero   1
        .size   .L.str, 1

        .type   .L.str.1,@object        # @.str.1
.L.str.1:
        .asciz  "Hello "
        .size   .L.str.1, 7

        .type   .L.str.2,@object        # @.str.2
.L.str.2:
        .asciz  "!"
        .size   .L.str.2, 2

        .type   .L.str.3,@object        # @.str.3
.L.str.3:
        .asciz  "Hello!"
        .size   .L.str.3, 7

        .type   .L.str.4,@object        # @.str.4
.L.str.4:
        .asciz  "basic_string::append"
        .size   .L.str.4, 21

        .section        .init_array,"aw",@init_array
        .p2align        3
        .quad   _GLOBAL__sub_I_example.cpp
        .file   47 "/opt/compiler-explorer/gcc-8.3.0/lib/gcc/x86_64-linux-gnu/8.3.0/../../../../include/c++/8.3.0/bits" "stringfwd.h"
        .section        ".note.GNU-stack","",@progbits
        .addrsig
        .addrsig_sym __gxx_personality_v0
        .addrsig_sym _GLOBAL__sub_I_example.cpp
        .addrsig_sym _Unwind_Resume
        .addrsig_sym std::__ioinit
        .addrsig_sym __dso_handle
        .addrsig_sym std::cin
        .addrsig_sym std::cout